(dp1
S'shuffle'
p2
I00
sS'use_nade'
p3
I00
sS'cov_explicit'
p4
I00
sS'dataset'
p5
S''
sS'epochs'
p6
I2000
sS'seed'
p7
I1
sS'init_weight'
p8
F0.10000000000000001
sS'reg_spec'
p9
S'_'
sS'use_prev_input'
p10
I00
sS'reg_value'
p11
F0.050000000000000003
sS'reloadFile'
p12
S'./NOSUCHFILE'
p13
sS'dim_stochastic'
p14
I100
sS'rnn_layers'
p15
I1
sS'transition_layers'
p16
I2
sS'lr'
p17
F0.00080000000000000004
sS'reg_type'
p18
S'l2'
p19
sS'init_scheme'
p20
S'uniform'
p21
sS'replicate_K'
p22
NsS'optimizer'
p23
S'adam'
p24
sS'use_generative_prior'
p25
I00
sS'q_mlp_layers'
p26
I1
sS'maxout_stride'
p27
I4
sS'batch_size'
p28
I20
sS'savedir'
p29
S'./chkpt'
p30
sS'forget_bias'
p31
F-5
sS'inference_model'
p32
S'structured'
p33
sS'emission_layers'
p34
I2
sS'savefreq'
p35
I25
sS'rnn_size'
p36
I600
sS'paramFile'
p37
g13
sS'emission_type'
p38
S'mlp'
p39
sS'nonlinearity'
p40
S'relu'
p41
sS'rnn_dropout'
p42
F0.10000000000000001
sS'dim_hidden'
p43
I200
sS'var_model'
p44
S'lstmr'
p45
sS'anneal_rate'
p46
F10
sS'debug'
p47
I00
sS'validate_only'
p48
I00
sS'transition_type'
p49
S'simple_gated'
p50
sS'unique_id'
p51
S'DKF_lr-8_0000e-04-vm-lstmr-inf-structured-dh-200-ds-100-nl-relu-bs-20-ep-2000-rs-600-rd-1_0000e-01-ttype-simple_gated-etype-mlp-previnp-False-ar-1_0000e+01-rv-5_0000e-02-nade-False-uid'
p52
sS'leaky_param'
p53
F0
s.